; Function Attrs: mustprogress uwtable
define hidden void @_ZN3euf6egraph15push_congruenceEPNS_5enodeES2_b(ptr noundef nonnull align 8 dereferenceable(536) initializes((336, 337)) %0, ptr noundef readonly captures(none) %1, ptr noundef readonly captures(none) %2, i1 noundef zeroext %3) local_unnamed_addr #3 align 2 {
  %5 = alloca ptr, align 8
  %6 = alloca ptr, align 8
  %7 = getelementptr inbounds nuw i8, ptr %0, i64 336
  store i8 1, ptr %7, align 8, !tbaa !277
  %8 = getelementptr inbounds nuw i8, ptr %0, i64 488
  %9 = load ptr, ptr %8, align 8, !tbaa !130
  %.not.i.i.not = icmp eq ptr %9, null
  %brmerge = or i1 %3, %.not.i.i.not
  br i1 %brmerge, label %15, label %_ZNKSt8functionIFvP3appS1_EEclES1_S1_.exit

_ZNKSt8functionIFvP3appS1_EEclES1_S1_.exit:       ; preds = %4
  %10 = getelementptr inbounds nuw i8, ptr %0, i64 472
  %11 = load ptr, ptr %1, align 8, !tbaa !30
  %12 = load ptr, ptr %2, align 8, !tbaa !30
  call void @llvm.lifetime.start.p0(i64 8, ptr nonnull %5)
  call void @llvm.lifetime.start.p0(i64 8, ptr nonnull %6)
  store ptr %11, ptr %5, align 8, !tbaa !278
  store ptr %12, ptr %6, align 8, !tbaa !278
  %13 = getelementptr inbounds nuw i8, ptr %0, i64 496
  %14 = load ptr, ptr %13, align 8, !tbaa !279
  call void %14(ptr noundef nonnull align 8 dereferenceable(32) %10, ptr noundef nonnull align 8 dereferenceable(8) %5, ptr noundef nonnull align 8 dereferenceable(8) %6)
  call void @llvm.lifetime.end.p0(i64 8, ptr nonnull %5)
  call void @llvm.lifetime.end.p0(i64 8, ptr nonnull %6)
  br label %15

15:                                               ; preds = %4, %_ZNKSt8functionIFvP3appS1_EEclES1_S1_.exit
  br i1 %3, label %16, label %39

16:                                               ; preds = %15
  %17 = getelementptr inbounds nuw i8, ptr %1, i64 176
  %18 = load ptr, ptr %17, align 8, !tbaa !47
  %19 = getelementptr inbounds nuw i8, ptr %18, i64 64
  %20 = load ptr, ptr %19, align 8, !tbaa !32
  %21 = getelementptr inbounds nuw i8, ptr %2, i64 176
  %22 = getelementptr inbounds nuw i8, ptr %2, i64 184
  %23 = load ptr, ptr %22, align 8, !tbaa !47
  %24 = getelementptr inbounds nuw i8, ptr %23, i64 64
  %25 = load ptr, ptr %24, align 8, !tbaa !32
  %26 = icmp eq ptr %20, %25
  br i1 %26, label %27, label %39

27:                                               ; preds = %16
  %28 = getelementptr inbounds nuw i8, ptr %1, i64 184
  %29 = load ptr, ptr %28, align 8, !tbaa !47
  %30 = getelementptr inbounds nuw i8, ptr %29, i64 64
  %31 = load ptr, ptr %30, align 8, !tbaa !32
  %32 = load ptr, ptr %21, align 8, !tbaa !47
  %33 = getelementptr inbounds nuw i8, ptr %32, i64 64
  %34 = load ptr, ptr %33, align 8, !tbaa !32
  %35 = icmp eq ptr %31, %34
  br i1 %35, label %36, label %39

36:                                               ; preds = %27
  call void @_ZN3euf6egraph8push_lcaEPNS_5enodeES2_(ptr noundef nonnull align 8 dereferenceable(536) %0, ptr noundef nonnull %18, ptr noundef nonnull %23)
  %37 = load ptr, ptr %28, align 8, !tbaa !47
  %38 = load ptr, ptr %21, align 8, !tbaa !47
  call void @_ZN3euf6egraph8push_lcaEPNS_5enodeES2_(ptr noundef nonnull align 8 dereferenceable(536) %0, ptr noundef %37, ptr noundef %38)
  br label %.loopexit

39:                                               ; preds = %27, %16, %15
  %40 = getelementptr inbounds nuw i8, ptr %1, i64 152
  %41 = load i32, ptr %40, align 8, !tbaa !46
  %.not = icmp eq i32 %41, 0
  br i1 %.not, label %.loopexit, label %.lr.ph

.lr.ph:                                           ; preds = %39
  %42 = getelementptr inbounds nuw i8, ptr %1, i64 176
  %43 = getelementptr inbounds nuw i8, ptr %2, i64 176
  br label %44

44:                                               ; preds = %.lr.ph, %44
  %indvars.iv = phi i64 [ 0, %.lr.ph ], [ %indvars.iv.next, %44 ]
  %45 = getelementptr inbounds nuw [0 x ptr], ptr %42, i64 0, i64 %indvars.iv
  %46 = load ptr, ptr %45, align 8, !tbaa !47
  %47 = getelementptr inbounds nuw [0 x ptr], ptr %43, i64 0, i64 %indvars.iv
  %48 = load ptr, ptr %47, align 8, !tbaa !47
  call void @_ZN3euf6egraph8push_lcaEPNS_5enodeES2_(ptr noundef nonnull align 8 dereferenceable(536) %0, ptr noundef %46, ptr noundef %48)
  %indvars.iv.next = add nuw nsw i64 %indvars.iv, 1
  %49 = load i32, ptr %40, align 8, !tbaa !46
  %50 = zext i32 %49 to i64
  %51 = icmp samesign ult i64 %indvars.iv.next, %50
  br i1 %51, label %44, label %.loopexit, !llvm.loop !280

.loopexit:                                        ; preds = %44, %39, %36
  ret void
}